; Function Attrs: mustprogress uwtable
define void @_ZN5arrow2io19BufferedInputStream13SetBufferSizeEl(ptr noalias sret(%"class.arrow::Status") align 8 %agg.result, ptr nocapture noundef nonnull readonly align 8 dereferenceable(32) %this, i64 noundef %new_buffer_size) local_unnamed_addr #0 align 2 {
entry:
  %impl_ = getelementptr inbounds i8, ptr %this, i64 24
  %0 = load ptr, ptr %impl_, align 8
  %cmp.i = icmp slt i64 %new_buffer_size, 1
  br i1 %cmp.i, label %if.then.i, label %if.end.i

if.then.i:                                        ; preds = %entry
  tail call void @_ZN5arrow6Status8FromArgsIJRA31_KcEEES0_NS_10StatusCodeEDpOT_(ptr sret(%"class.arrow::Status") align 8 %agg.result, i8 noundef signext 4, ptr noundef nonnull align 1 dereferenceable(31) @.str)
  br label %_ZN5arrow2io19BufferedInputStream4Impl13SetBufferSizeEl.exit

if.end.i:                                         ; preds = %entry
  %buffer_pos_.i = getelementptr inbounds i8, ptr %0, i64 40
  %1 = load i64, ptr %buffer_pos_.i, align 8, !noalias !117
  %bytes_buffered_.i = getelementptr inbounds i8, ptr %0, i64 136
  %2 = load i64, ptr %bytes_buffered_.i, align 8, !noalias !117
  %add.i = add nsw i64 %2, %1
  %cmp2.not.i = icmp slt i64 %add.i, %new_buffer_size
  br i1 %cmp2.not.i, label %if.end4.i, label %if.then3.i

if.then3.i:                                       ; preds = %if.end.i
  tail call void @_ZN5arrow6Status8FromArgsIJRA51_KcEEES0_NS_10StatusCodeEDpOT_(ptr sret(%"class.arrow::Status") align 8 %agg.result, i8 noundef signext 4, ptr noundef nonnull align 1 dereferenceable(51) @.str.4)
  br label %_ZN5arrow2io19BufferedInputStream4Impl13SetBufferSizeEl.exit

if.end4.i:                                        ; preds = %if.end.i
  %buffer_size_.i.i = getelementptr inbounds i8, ptr %0, i64 48
  store i64 %new_buffer_size, ptr %buffer_size_.i.i, align 8, !noalias !120
  tail call void @_ZN5arrow2io12BufferedBase11ResetBufferEv(ptr sret(%"class.arrow::Status") align 8 %agg.result, ptr noundef nonnull align 8 dereferenceable(104) %0)
  br label %_ZN5arrow2io19BufferedInputStream4Impl13SetBufferSizeEl.exit

_ZN5arrow2io19BufferedInputStream4Impl13SetBufferSizeEl.exit: ; preds = %if.then.i, %if.then3.i, %if.end4.i
  ret void
}